; Function Attrs: nounwind uwtable
define hidden void @libdecorFrameHandleCommit(ptr readnone captures(none) %0, ptr noundef readonly captures(none) %1) #0 {
  %3 = getelementptr inbounds nuw i8, ptr %1, i64 904
  %4 = load ptr, ptr %3, align 8, !tbaa !135
  %5 = load ptr, ptr getelementptr inbounds nuw (i8, ptr @_glfw, i64 137528), align 8, !tbaa !136
  %6 = load ptr, ptr getelementptr inbounds nuw (i8, ptr @_glfw, i64 137520), align 8, !tbaa !93
  %7 = tail call i32 %6(ptr noundef %4) #20
  %8 = tail call ptr (ptr, i32, ptr, i32, i32, ...) %5(ptr noundef %4, i32 noundef 6, ptr noundef null, i32 noundef %7, i32 noundef 0) #20
  ret void
}